; Function Attrs: mustprogress uwtable
define internal void @_ZNK6google8protobuf8compiler3cpp12_GLOBAL__N_123CordOneofFieldGenerator33GenerateInlineAccessorDefinitionsEPNS0_2io7PrinterE(ptr noundef nonnull align 8 dereferenceable(85) %this, ptr noundef nonnull %printer) unnamed_addr #3 align 2 personality ptr @__gxx_personality_v0 {
entry:
  %v = alloca %"class.absl::lts_20230802::Cleanup.179", align 8
  %variables_ = getelementptr inbounds i8, ptr %this, i64 32
  call void @_ZN6google8protobuf2io7Printer8WithVarsIRKN4absl12lts_2023080213flat_hash_mapISt17basic_string_viewIcSt11char_traitsIcEENSt7__cxx1112basic_stringIcS9_SaIcEEENS5_18container_internal10StringHashENSF_8StringEqESaISt4pairIKSA_SE_EEEEvvEEDaOT_(ptr nonnull sret(%"class.absl::lts_20230802::Cleanup.179") align 8 %v, ptr noundef nonnull align 8 dereferenceable(256) %printer, ptr noundef nonnull align 8 dereferenceable(32) %variables_)
  invoke void @_ZN6google8protobuf2io7Printer4EmitEN4absl12lts_202308024SpanIKNS2_3SubEEESt17basic_string_viewIcSt11char_traitsIcEENS2_14SourceLocationE(ptr noundef nonnull align 8 dereferenceable(256) %printer, ptr null, i64 0, i64 171, ptr nonnull @.str.60)
          to label %invoke.cont unwind label %lpad

invoke.cont:                                      ; preds = %entry
  invoke void @_ZN6google8protobuf2io7Printer4EmitEN4absl12lts_202308024SpanIKNS2_3SubEEESt17basic_string_viewIcSt11char_traitsIcEENS2_14SourceLocationE(ptr noundef nonnull align 8 dereferenceable(256) %printer, ptr null, i64 0, i64 220, ptr nonnull @.str.29)
          to label %invoke.cont6 unwind label %lpad

invoke.cont6:                                     ; preds = %invoke.cont
  invoke void @_ZN6google8protobuf2io7Printer4EmitEN4absl12lts_202308024SpanIKNS2_3SubEEESt17basic_string_viewIcSt11char_traitsIcEENS2_14SourceLocationE(ptr noundef nonnull align 8 dereferenceable(256) %printer, ptr null, i64 0, i64 432, ptr nonnull @.str.61)
          to label %invoke.cont10 unwind label %lpad

invoke.cont10:                                    ; preds = %invoke.cont6
  invoke void @_ZN6google8protobuf2io7Printer4EmitEN4absl12lts_202308024SpanIKNS2_3SubEEESt17basic_string_viewIcSt11char_traitsIcEENS2_14SourceLocationE(ptr noundef nonnull align 8 dereferenceable(256) %printer, ptr null, i64 0, i64 445, ptr nonnull @.str.62)
          to label %invoke.cont14 unwind label %lpad

invoke.cont14:                                    ; preds = %invoke.cont10
  invoke void @_ZN6google8protobuf2io7Printer4EmitEN4absl12lts_202308024SpanIKNS2_3SubEEESt17basic_string_viewIcSt11char_traitsIcEENS2_14SourceLocationE(ptr noundef nonnull align 8 dereferenceable(256) %printer, ptr null, i64 0, i64 349, ptr nonnull @.str.63)
          to label %invoke.cont18 unwind label %lpad

invoke.cont18:                                    ; preds = %invoke.cont14
  %0 = load i8, ptr %v, align 8
  %1 = and i8 %0, 1
  %tobool.i.not.i = icmp eq i8 %1, 0
  br i1 %tobool.i.not.i, label %_ZN4absl12lts_202308027CleanupINS0_16cleanup_internal3TagEZN6google8protobuf2io7Printer8WithVarsIRKNS0_13flat_hash_mapISt17basic_string_viewIcSt11char_traitsIcEENSt7__cxx1112basic_stringIcSC_SaIcEEENS0_18container_internal10StringHashENSI_8StringEqESaISt4pairIKSD_SH_EEEEvvEEDaOT_EUlvE_ED2Ev.exit, label %if.then.i

if.then.i:                                        ; preds = %invoke.cont18
  %callback_buffer_.i.i.i.i = getelementptr inbounds i8, ptr %v, i64 8
  %2 = load ptr, ptr %callback_buffer_.i.i.i.i, align 8
  %_M_finish.i.i.i.i = getelementptr inbounds i8, ptr %2, i64 160
  %3 = load ptr, ptr %_M_finish.i.i.i.i, align 8
  %incdec.ptr.i.i.i.i = getelementptr inbounds i8, ptr %3, i64 -32
  store ptr %incdec.ptr.i.i.i.i, ptr %_M_finish.i.i.i.i, align 8
  %_M_manager.i.i.i.i.i.i.i.i = getelementptr inbounds i8, ptr %3, i64 -16
  %4 = load ptr, ptr %_M_manager.i.i.i.i.i.i.i.i, align 8
  %tobool.not.i.i.i.i.i.i.i.i = icmp eq ptr %4, null
  br i1 %tobool.not.i.i.i.i.i.i.i.i, label %_ZN4absl12lts_202308027CleanupINS0_16cleanup_internal3TagEZN6google8protobuf2io7Printer8WithVarsIRKNS0_13flat_hash_mapISt17basic_string_viewIcSt11char_traitsIcEENSt7__cxx1112basic_stringIcSC_SaIcEEENS0_18container_internal10StringHashENSI_8StringEqESaISt4pairIKSD_SH_EEEEvvEEDaOT_EUlvE_ED2Ev.exit, label %if.then.i.i.i.i.i.i.i.i

if.then.i.i.i.i.i.i.i.i:                          ; preds = %if.then.i
  %call.i.i.i.i.i.i.i.i = invoke noundef zeroext i1 %4(ptr noundef nonnull align 8 dereferenceable(16) %incdec.ptr.i.i.i.i, ptr noundef nonnull align 8 dereferenceable(16) %incdec.ptr.i.i.i.i, i32 noundef 3)
          to label %_ZN4absl12lts_202308027CleanupINS0_16cleanup_internal3TagEZN6google8protobuf2io7Printer8WithVarsIRKNS0_13flat_hash_mapISt17basic_string_viewIcSt11char_traitsIcEENSt7__cxx1112basic_stringIcSC_SaIcEEENS0_18container_internal10StringHashENSI_8StringEqESaISt4pairIKSD_SH_EEEEvvEEDaOT_EUlvE_ED2Ev.exit unwind label %terminate.lpad.i.i.i.i.i.i.i.i

terminate.lpad.i.i.i.i.i.i.i.i:                   ; preds = %if.then.i.i.i.i.i.i.i.i
  %5 = landingpad { ptr, i32 }
          catch ptr null
  %6 = extractvalue { ptr, i32 } %5, 0
  call void @__clang_call_terminate(ptr %6) #27
  unreachable

_ZN4absl12lts_202308027CleanupINS0_16cleanup_internal3TagEZN6google8protobuf2io7Printer8WithVarsIRKNS0_13flat_hash_mapISt17basic_string_viewIcSt11char_traitsIcEENSt7__cxx1112basic_stringIcSC_SaIcEEENS0_18container_internal10StringHashENSI_8StringEqESaISt4pairIKSD_SH_EEEEvvEEDaOT_EUlvE_ED2Ev.exit: ; preds = %if.then.i, %if.then.i.i.i.i.i.i.i.i, %invoke.cont18
  ret void

lpad:                                             ; preds = %invoke.cont14, %invoke.cont10, %invoke.cont6, %invoke.cont, %entry
  %7 = landingpad { ptr, i32 }
          cleanup
  call void @_ZN4absl12lts_202308027CleanupINS0_16cleanup_internal3TagEZN6google8protobuf2io7Printer8WithVarsIRKNS0_13flat_hash_mapISt17basic_string_viewIcSt11char_traitsIcEENSt7__cxx1112basic_stringIcSC_SaIcEEENS0_18container_internal10StringHashENSI_8StringEqESaISt4pairIKSD_SH_EEEEvvEEDaOT_EUlvE_ED2Ev(ptr noundef nonnull align 8 dereferenceable(16) %v) #26
  resume { ptr, i32 } %7
}